; Function Attrs: mustprogress uwtable
define internal noundef zeroext i1 @_ZNSt17_Function_handlerIFbRN12_GLOBAL__N_111RootPresetsEPKN4Json5ValueEP11cmJSONStateEZN19cmJSONHelperBuilder6ObjectIS1_E4BindIiSt8functionIFbRiS6_S8_EEEERSC_RKSt17basic_string_viewIcSt11char_traitsIcEEDnT0_bEUlS2_S6_S8_E_E9_M_invokeERKSt9_Any_dataS2_OS6_OS8_(ptr nocapture noundef nonnull readonly align 8 dereferenceable(16) %0, ptr nocapture nonnull readnone align 8 %1, ptr nocapture noundef nonnull readonly align 8 dereferenceable(8) %2, ptr nocapture noundef nonnull readonly align 8 dereferenceable(8) %3) #3 align 2 {
  %5 = alloca ptr, align 8
  %6 = alloca ptr, align 8
  %7 = alloca i32, align 4
  %.val = load ptr, ptr %0, align 8
  %.val4 = load ptr, ptr %2, align 8
  %.val5 = load ptr, ptr %3, align 8
  call void @llvm.lifetime.start.p0(i64 4, ptr nonnull %7)
  call void @llvm.lifetime.start.p0(i64 8, ptr nonnull %5)
  call void @llvm.lifetime.start.p0(i64 8, ptr nonnull %6)
  store ptr %.val4, ptr %5, align 8
  store ptr %.val5, ptr %6, align 8
  %8 = getelementptr inbounds i8, ptr %.val, i64 16
  %9 = load ptr, ptr %8, align 8
  %.not.i.i.i.i.i = icmp eq ptr %9, null
  br i1 %.not.i.i.i.i.i, label %10, label %_ZSt10__invoke_rIbRZN19cmJSONHelperBuilder6ObjectIN12_GLOBAL__N_111RootPresetsEE4BindIiSt8functionIFbRiPKN4Json5ValueEP11cmJSONStateEEEERS4_RKSt17basic_string_viewIcSt11char_traitsIcEEDnT0_bEUlRS3_SB_SD_E_JSO_SB_SD_EENSt9enable_ifIX16is_invocable_r_vIT_SN_DpT1_EESS_E4typeEOSN_DpOST_.exit

10:                                               ; preds = %4
  tail call void @_ZSt25__throw_bad_function_callv() #24
  unreachable

_ZSt10__invoke_rIbRZN19cmJSONHelperBuilder6ObjectIN12_GLOBAL__N_111RootPresetsEE4BindIiSt8functionIFbRiPKN4Json5ValueEP11cmJSONStateEEEERS4_RKSt17basic_string_viewIcSt11char_traitsIcEEDnT0_bEUlRS3_SB_SD_E_JSO_SB_SD_EENSt9enable_ifIX16is_invocable_r_vIT_SN_DpT1_EESS_E4typeEOSN_DpOST_.exit: ; preds = %4
  %11 = getelementptr inbounds i8, ptr %.val, i64 24
  %12 = load ptr, ptr %11, align 8
  %13 = call noundef zeroext i1 %12(ptr noundef nonnull align 8 dereferenceable(16) %.val, ptr noundef nonnull align 4 dereferenceable(4) %7, ptr noundef nonnull align 8 dereferenceable(8) %5, ptr noundef nonnull align 8 dereferenceable(8) %6)
  call void @llvm.lifetime.end.p0(i64 8, ptr nonnull %5)
  call void @llvm.lifetime.end.p0(i64 8, ptr nonnull %6)
  call void @llvm.lifetime.end.p0(i64 4, ptr nonnull %7)
  ret i1 %13
}